; Function Attrs: mustprogress nounwind uwtable
define hidden void @_ZN10ciTypeFlow6JsrSet17insert_jsr_recordEPNS_9JsrRecordE(ptr noundef nonnull align 8 dereferenceable(32) %0, ptr noundef %1) local_unnamed_addr #0 align 2 {
  %3 = getelementptr inbounds i8, ptr %0, i64 8
  %4 = load i32, ptr %3, align 8
  %5 = load i32, ptr %1, align 4
  %6 = icmp sgt i32 %4, 0
  br i1 %6, label %.lr.ph, label %._crit_edge

.lr.ph:                                           ; preds = %2
  %7 = getelementptr inbounds i8, ptr %0, i64 16
  %8 = load ptr, ptr %7, align 8
  %wide.trip.count = zext nneg i32 %4 to i64
  br label %9

9:                                                ; preds = %.lr.ph, %18
  %indvars.iv = phi i64 [ 0, %.lr.ph ], [ %indvars.iv.next, %18 ]
  %10 = getelementptr inbounds ptr, ptr %8, i64 %indvars.iv
  %11 = load ptr, ptr %10, align 8
  %12 = load i32, ptr %11, align 4
  %13 = icmp eq i32 %5, %12
  br i1 %13, label %14, label %16

14:                                               ; preds = %9
  %15 = getelementptr inbounds ptr, ptr %8, i64 %indvars.iv
  store ptr %1, ptr %15, align 8
  br label %49

16:                                               ; preds = %9
  %17 = icmp slt i32 %5, %12
  br i1 %17, label %._crit_edge.loopexit, label %18

18:                                               ; preds = %16
  %indvars.iv.next = add nuw nsw i64 %indvars.iv, 1
  %exitcond.not = icmp eq i64 %indvars.iv.next, %wide.trip.count
  br i1 %exitcond.not, label %._crit_edge29, label %9, !llvm.loop !9

._crit_edge.loopexit:                             ; preds = %16
  %19 = trunc nuw nsw i64 %indvars.iv to i32
  br label %._crit_edge

._crit_edge:                                      ; preds = %._crit_edge.loopexit, %2
  %.0.lcssa = phi i32 [ 0, %2 ], [ %19, %._crit_edge.loopexit ]
  %20 = icmp slt i32 %.0.lcssa, %4
  br i1 %20, label %.lr.ph28, label %._crit_edge29

.lr.ph28:                                         ; preds = %._crit_edge
  %21 = getelementptr inbounds i8, ptr %0, i64 16
  %22 = zext i32 %.0.lcssa to i64
  br label %23

23:                                               ; preds = %.lr.ph28, %23
  %indvars.iv34 = phi i64 [ %22, %.lr.ph28 ], [ %indvars.iv.next35, %23 ]
  %.02025 = phi ptr [ %1, %.lr.ph28 ], [ %26, %23 ]
  %24 = load ptr, ptr %21, align 8
  %25 = getelementptr inbounds ptr, ptr %24, i64 %indvars.iv34
  %26 = load ptr, ptr %25, align 8
  store ptr %.02025, ptr %25, align 8
  %indvars.iv.next35 = add nuw nsw i64 %indvars.iv34, 1
  %27 = trunc nuw i64 %indvars.iv.next35 to i32
  %28 = icmp sgt i32 %4, %27
  br i1 %28, label %23, label %._crit_edge29.loopexit, !llvm.loop !10

._crit_edge29.loopexit:                           ; preds = %23
  %.pre = load i32, ptr %3, align 8
  br label %._crit_edge29

._crit_edge29:                                    ; preds = %18, %._crit_edge29.loopexit, %._crit_edge
  %29 = phi i32 [ %4, %._crit_edge ], [ %.pre, %._crit_edge29.loopexit ], [ %4, %18 ]
  %.020.lcssa = phi ptr [ %1, %._crit_edge ], [ %26, %._crit_edge29.loopexit ], [ %1, %18 ]
  %30 = getelementptr inbounds i8, ptr %0, i64 12
  %31 = load i32, ptr %30, align 4
  %32 = icmp eq i32 %29, %31
  br i1 %32, label %33, label %_ZN26GrowableArrayWithAllocatorIPN10ciTypeFlow9JsrRecordE13GrowableArrayIS2_EE6appendERKS2_.exit

33:                                               ; preds = %._crit_edge29
  %34 = add nsw i32 %29, 1
  %35 = icmp sgt i32 %29, -1
  %36 = xor i32 %29, -2147483648
  %37 = and i32 %36, %34
  %38 = icmp eq i32 %37, 0
  %39 = and i1 %35, %38
  %40 = tail call range(i32 0, 33) i32 @llvm.ctlz.i32(i32 %34, i1 true)
  %41 = sub nuw nsw i32 32, %40
  %42 = shl nuw i32 1, %41
  %.0.i.i.i.i = select i1 %39, i32 %34, i32 %42
  tail call void @_ZN26GrowableArrayWithAllocatorIPN10ciTypeFlow9JsrRecordE13GrowableArrayIS2_EE9expand_toEi(ptr noundef nonnull align 8 dereferenceable(16) %3, i32 noundef %.0.i.i.i.i)
  %.pre.i = load i32, ptr %3, align 8
  br label %_ZN26GrowableArrayWithAllocatorIPN10ciTypeFlow9JsrRecordE13GrowableArrayIS2_EE6appendERKS2_.exit

_ZN26GrowableArrayWithAllocatorIPN10ciTypeFlow9JsrRecordE13GrowableArrayIS2_EE6appendERKS2_.exit: ; preds = %._crit_edge29, %33
  %43 = phi i32 [ %.pre.i, %33 ], [ %29, %._crit_edge29 ]
  %44 = add nsw i32 %43, 1
  store i32 %44, ptr %3, align 8
  %45 = getelementptr inbounds i8, ptr %0, i64 16
  %46 = load ptr, ptr %45, align 8
  %47 = sext i32 %43 to i64
  %48 = getelementptr inbounds ptr, ptr %46, i64 %47
  store ptr %.020.lcssa, ptr %48, align 8
  br label %49

49:                                               ; preds = %_ZN26GrowableArrayWithAllocatorIPN10ciTypeFlow9JsrRecordE13GrowableArrayIS2_EE6appendERKS2_.exit, %14
  ret void
}